Vbody {\u000a  background-color: #FFFFFF;\u000a  font-family: Raleway, sans-serif; }\u000a\u000a  h1, h2, h3, h4, h5, h6 {\u000a    font-family: Yeseva One, serif;\u000a    text-decoration: none;\u000a    font-weight: normal; }\u000a
p1
.