Vbody {\u000a  background-color: #FFF;\u000a  font-family: Raleway, sans-serif; }\u000a\u000a  h1, h2, h3, h4, h5, h6 {\u000a    font-family: Yeseva One;\u000a    text-decoration: none;\u000a    font-weight: normal;\u000a    margin: 0; }\u000a\u000a    .main-content {\u000a      margin: 0;\u000a      padding: 0; }\u000a
p1
.