Vbody {\u000a  background: url("images/coffeeshop.jpeg") no-repeat center center fixed;\u000a  background-size: cover;\u000a  margin: 0px;\u000a  padding: 0px; }\u000a\u000a  .header-box {\u000a    background-color: #FFFFFF;\u000a    height: 100px;\u000a    text-align: center;\u000a    padding: 30px;\u000a    margin: -15;\u000a    box-shadow: 0 0 #000; }\u000a
p1
.