Vbody {\u000a  background-color: #FFFFFF;\u000a  font-family: Raleway, sans-serif;\u000a  background-size: cover;\u000a  margin: 0px;\u000a  padding: 0px; }\u000a\u000a  h1, h2, h3, h4, h5, h6 {\u000a    font-family: Yeseva One, serif;\u000a    text-decoration: none;\u000a    font-weight: normal; }\u000a\u000a    .main-content {\u000a      margin: 0;\u000a      padding: 0; }\u000a
p1
.